target datalayout = "e-m:e-p270:32:32-p271:32:32-p272:64:64-i64:64-i128:128-f80:128-n8:16:32:64-S128"
target triple = "x86_64-pc-linux-gnu"

%"class.pxrInternal_v0_24__pxrReserved__::GfRay" = type { %"class.pxrInternal_v0_24__pxrReserved__::GfVec3d", %"class.pxrInternal_v0_24__pxrReserved__::GfVec3d" }
%"class.pxrInternal_v0_24__pxrReserved__::GfVec3d" = type { [3 x double] }
%"class.pxrInternal_v0_24__pxrReserved__::GfRange3d" = type { %"class.pxrInternal_v0_24__pxrReserved__::GfVec3d", %"class.pxrInternal_v0_24__pxrReserved__::GfVec3d" }

; Function Attrs: mustprogress nounwind uwtable
define linkonce_odr noundef nonnull align 8 dereferenceable(24) ptr @_ZNK32pxrInternal_v0_24__pxrReserved__9GfRange3d6GetMaxEv(ptr noundef nonnull align 8 dereferenceable(48) %0) #2 comdat align 2 {
  %2 = alloca ptr, align 8
  store ptr %0, ptr %2, align 8
  %3 = load ptr, ptr %2, align 8
  %4 = getelementptr inbounds nuw %"class.pxrInternal_v0_24__pxrReserved__::GfRange3d", ptr %3, i32 0, i32 1
  ret ptr %4
}

; Function Attrs: mustprogress nounwind uwtable
define linkonce_odr noundef nonnull align 8 dereferenceable(24) ptr @_ZNK32pxrInternal_v0_24__pxrReserved__9GfRange3d6GetMinEv(ptr noundef nonnull align 8 dereferenceable(48) %0) #2 comdat align 2 {
  %2 = alloca ptr, align 8
  store ptr %0, ptr %2, align 8
  %3 = load ptr, ptr %2, align 8
  %4 = getelementptr inbounds nuw %"class.pxrInternal_v0_24__pxrReserved__::GfRange3d", ptr %3, i32 0, i32 0
  ret ptr %4
}

; Function Attrs: mustprogress nounwind uwtable
define linkonce_odr noundef nonnull align 8 dereferenceable(24) ptr @_ZNK32pxrInternal_v0_24__pxrReserved__5GfRay13GetStartPointEv(ptr noundef nonnull align 8 dereferenceable(48) %0) #2 comdat align 2 {
  %2 = alloca ptr, align 8
  store ptr %0, ptr %2, align 8
  %3 = load ptr, ptr %2, align 8
  %4 = getelementptr inbounds nuw %"class.pxrInternal_v0_24__pxrReserved__::GfRay", ptr %3, i32 0, i32 0
  ret ptr %4
}

; Function Attrs: mustprogress nounwind uwtable
define linkonce_odr noundef double @_ZN32pxrInternal_v0_24__pxrReserved__5GfAbsEd(double noundef %0) #2 comdat {
  %2 = alloca double, align 8
  store double %0, ptr %2, align 8
  %3 = load double, ptr %2, align 8
  %4 = call double @llvm.fabs.f64(double %3)
  ret double %4
}

; Function Attrs: mustprogress nounwind uwtable
define linkonce_odr noundef nonnull align 8 dereferenceable(8) ptr @_ZNK32pxrInternal_v0_24__pxrReserved__7GfVec3dixEm(ptr noundef nonnull align 8 dereferenceable(24) %0, i64 noundef %1) #2 comdat align 2 {
  %3 = alloca ptr, align 8
  %4 = alloca i64, align 8
  store ptr %0, ptr %3, align 8
  store i64 %1, ptr %4, align 8
  %5 = load ptr, ptr %3, align 8
  %6 = getelementptr inbounds nuw %"class.pxrInternal_v0_24__pxrReserved__::GfVec3d", ptr %5, i32 0, i32 0
  %7 = load i64, ptr %4, align 8
  %8 = getelementptr inbounds [3 x double], ptr %6, i64 0, i64 %7
  ret ptr %8
}

; Function Attrs: mustprogress nounwind uwtable
define linkonce_odr noundef nonnull align 8 dereferenceable(24) ptr @_ZNK32pxrInternal_v0_24__pxrReserved__5GfRay12GetDirectionEv(ptr noundef nonnull align 8 dereferenceable(48) %0) #2 comdat align 2 {
  %2 = alloca ptr, align 8
  store ptr %0, ptr %2, align 8
  %3 = load ptr, ptr %2, align 8
  %4 = getelementptr inbounds nuw %"class.pxrInternal_v0_24__pxrReserved__::GfRay", ptr %3, i32 0, i32 1
  ret ptr %4
}

; Function Attrs: mustprogress nounwind uwtable
define linkonce_odr noundef zeroext i1 @_ZNK32pxrInternal_v0_24__pxrReserved__9GfRange3d7IsEmptyEv(ptr noundef nonnull align 8 dereferenceable(48) %0) #2 comdat align 2 {
  %2 = alloca ptr, align 8
  store ptr %0, ptr %2, align 8
  %3 = load ptr, ptr %2, align 8
  %4 = getelementptr inbounds nuw %"class.pxrInternal_v0_24__pxrReserved__::GfRange3d", ptr %3, i32 0, i32 0
  %5 = call noundef nonnull align 8 dereferenceable(8) ptr @_ZNK32pxrInternal_v0_24__pxrReserved__7GfVec3dixEm(ptr noundef nonnull align 8 dereferenceable(24) %4, i64 noundef 0)
  %6 = load double, ptr %5, align 8
  %7 = getelementptr inbounds nuw %"class.pxrInternal_v0_24__pxrReserved__::GfRange3d", ptr %3, i32 0, i32 1
  %8 = call noundef nonnull align 8 dereferenceable(8) ptr @_ZNK32pxrInternal_v0_24__pxrReserved__7GfVec3dixEm(ptr noundef nonnull align 8 dereferenceable(24) %7, i64 noundef 0)
  %9 = load double, ptr %8, align 8
  %10 = fcmp ogt double %6, %9
  br i1 %10, label %27, label %11

11:                                               ; preds = %1
  %12 = getelementptr inbounds nuw %"class.pxrInternal_v0_24__pxrReserved__::GfRange3d", ptr %3, i32 0, i32 0
  %13 = call noundef nonnull align 8 dereferenceable(8) ptr @_ZNK32pxrInternal_v0_24__pxrReserved__7GfVec3dixEm(ptr noundef nonnull align 8 dereferenceable(24) %12, i64 noundef 1)
  %14 = load double, ptr %13, align 8
  %15 = getelementptr inbounds nuw %"class.pxrInternal_v0_24__pxrReserved__::GfRange3d", ptr %3, i32 0, i32 1
  %16 = call noundef nonnull align 8 dereferenceable(8) ptr @_ZNK32pxrInternal_v0_24__pxrReserved__7GfVec3dixEm(ptr noundef nonnull align 8 dereferenceable(24) %15, i64 noundef 1)
  %17 = load double, ptr %16, align 8
  %18 = fcmp ogt double %14, %17
  br i1 %18, label %27, label %19

19:                                               ; preds = %11
  %20 = getelementptr inbounds nuw %"class.pxrInternal_v0_24__pxrReserved__::GfRange3d", ptr %3, i32 0, i32 0
  %21 = call noundef nonnull align 8 dereferenceable(8) ptr @_ZNK32pxrInternal_v0_24__pxrReserved__7GfVec3dixEm(ptr noundef nonnull align 8 dereferenceable(24) %20, i64 noundef 2)
  %22 = load double, ptr %21, align 8
  %23 = getelementptr inbounds nuw %"class.pxrInternal_v0_24__pxrReserved__::GfRange3d", ptr %3, i32 0, i32 1
  %24 = call noundef nonnull align 8 dereferenceable(8) ptr @_ZNK32pxrInternal_v0_24__pxrReserved__7GfVec3dixEm(ptr noundef nonnull align 8 dereferenceable(24) %23, i64 noundef 2)
  %25 = load double, ptr %24, align 8
  %26 = fcmp ogt double %22, %25
  br label %27

27:                                               ; preds = %19, %11, %1
  %28 = phi i1 [ true, %11 ], [ true, %1 ], [ %26, %19 ]
  ret i1 %28
}

; Function Attrs: mustprogress uwtable
define noundef zeroext i1 @_ZNK32pxrInternal_v0_24__pxrReserved__5GfRay9IntersectERKNS_9GfRange3dEPdS4_(ptr noundef nonnull align 8 dereferenceable(48) %0, ptr noundef nonnull align 8 dereferenceable(48) %1, ptr noundef %2, ptr noundef %3) #0 align 2 {
  %5 = alloca i1, align 1
  %6 = alloca ptr, align 8
  %7 = alloca ptr, align 8
  %8 = alloca ptr, align 8
  %9 = alloca ptr, align 8
  %10 = alloca double, align 8
  %11 = alloca double, align 8
  %12 = alloca i64, align 8
  %13 = alloca double, align 8
  %14 = alloca double, align 8
  %15 = alloca double, align 8
  %16 = alloca double, align 8
  store ptr %0, ptr %6, align 8
  store ptr %1, ptr %7, align 8
  store ptr %2, ptr %8, align 8
  store ptr %3, ptr %9, align 8
  %17 = load ptr, ptr %6, align 8
  %18 = load ptr, ptr %7, align 8
  %19 = call noundef zeroext i1 @_ZNK32pxrInternal_v0_24__pxrReserved__9GfRange3d7IsEmptyEv(ptr noundef nonnull align 8 dereferenceable(48) %18)
  br i1 %19, label %20, label %21

20:                                               ; preds = %4
  store i1 false, ptr %5, align 1
  br label %128

21:                                               ; preds = %4
  store double 0xFFEFFFFFFFFFFFFF, ptr %10, align 8
  store double 0x7FEFFFFFFFFFFFFF, ptr %11, align 8
  store i64 0, ptr %12, align 8
  br label %22

22:                                               ; preds = %104, %21
  %23 = load i64, ptr %12, align 8
  %24 = icmp ult i64 %23, 3
  br i1 %24, label %25, label %107

25:                                               ; preds = %22
  %26 = call noundef nonnull align 8 dereferenceable(24) ptr @_ZNK32pxrInternal_v0_24__pxrReserved__5GfRay12GetDirectionEv(ptr noundef nonnull align 8 dereferenceable(48) %17)
  %27 = load i64, ptr %12, align 8
  %28 = call noundef nonnull align 8 dereferenceable(8) ptr @_ZNK32pxrInternal_v0_24__pxrReserved__7GfVec3dixEm(ptr noundef nonnull align 8 dereferenceable(24) %26, i64 noundef %27)
  %29 = load double, ptr %28, align 8
  store double %29, ptr %13, align 8
  %30 = load double, ptr %13, align 8
  %31 = call noundef double @_ZN32pxrInternal_v0_24__pxrReserved__5GfAbsEd(double noundef %30)
  %32 = fcmp olt double %31, 1.000000e-10
  br i1 %32, label %33, label %57

33:                                               ; preds = %25
  %34 = call noundef nonnull align 8 dereferenceable(24) ptr @_ZNK32pxrInternal_v0_24__pxrReserved__5GfRay13GetStartPointEv(ptr noundef nonnull align 8 dereferenceable(48) %17)
  %35 = load i64, ptr %12, align 8
  %36 = call noundef nonnull align 8 dereferenceable(8) ptr @_ZNK32pxrInternal_v0_24__pxrReserved__7GfVec3dixEm(ptr noundef nonnull align 8 dereferenceable(24) %34, i64 noundef %35)
  %37 = load double, ptr %36, align 8
  %38 = load ptr, ptr %7, align 8
  %39 = call noundef nonnull align 8 dereferenceable(24) ptr @_ZNK32pxrInternal_v0_24__pxrReserved__9GfRange3d6GetMinEv(ptr noundef nonnull align 8 dereferenceable(48) %38)
  %40 = load i64, ptr %12, align 8
  %41 = call noundef nonnull align 8 dereferenceable(8) ptr @_ZNK32pxrInternal_v0_24__pxrReserved__7GfVec3dixEm(ptr noundef nonnull align 8 dereferenceable(24) %39, i64 noundef %40)
  %42 = load double, ptr %41, align 8
  %43 = fcmp olt double %37, %42
  br i1 %43, label %55, label %44

44:                                               ; preds = %33
  %45 = call noundef nonnull align 8 dereferenceable(24) ptr @_ZNK32pxrInternal_v0_24__pxrReserved__5GfRay13GetStartPointEv(ptr noundef nonnull align 8 dereferenceable(48) %17)
  %46 = load i64, ptr %12, align 8
  %47 = call noundef nonnull align 8 dereferenceable(8) ptr @_ZNK32pxrInternal_v0_24__pxrReserved__7GfVec3dixEm(ptr noundef nonnull align 8 dereferenceable(24) %45, i64 noundef %46)
  %48 = load double, ptr %47, align 8
  %49 = load ptr, ptr %7, align 8
  %50 = call noundef nonnull align 8 dereferenceable(24) ptr @_ZNK32pxrInternal_v0_24__pxrReserved__9GfRange3d6GetMaxEv(ptr noundef nonnull align 8 dereferenceable(48) %49)
  %51 = load i64, ptr %12, align 8
  %52 = call noundef nonnull align 8 dereferenceable(8) ptr @_ZNK32pxrInternal_v0_24__pxrReserved__7GfVec3dixEm(ptr noundef nonnull align 8 dereferenceable(24) %50, i64 noundef %51)
  %53 = load double, ptr %52, align 8
  %54 = fcmp ogt double %48, %53
  br i1 %54, label %55, label %56

55:                                               ; preds = %44, %33
  store i1 false, ptr %5, align 1
  br label %128

56:                                               ; preds = %44
  br label %104

57:                                               ; preds = %25
  %58 = load double, ptr %13, align 8
  %59 = fdiv double 1.000000e+00, %58
  store double %59, ptr %13, align 8
  %60 = load double, ptr %13, align 8
  %61 = load ptr, ptr %7, align 8
  %62 = call noundef nonnull align 8 dereferenceable(24) ptr @_ZNK32pxrInternal_v0_24__pxrReserved__9GfRange3d6GetMinEv(ptr noundef nonnull align 8 dereferenceable(48) %61)
  %63 = load i64, ptr %12, align 8
  %64 = call noundef nonnull align 8 dereferenceable(8) ptr @_ZNK32pxrInternal_v0_24__pxrReserved__7GfVec3dixEm(ptr noundef nonnull align 8 dereferenceable(24) %62, i64 noundef %63)
  %65 = load double, ptr %64, align 8
  %66 = call noundef nonnull align 8 dereferenceable(24) ptr @_ZNK32pxrInternal_v0_24__pxrReserved__5GfRay13GetStartPointEv(ptr noundef nonnull align 8 dereferenceable(48) %17)
  %67 = load i64, ptr %12, align 8
  %68 = call noundef nonnull align 8 dereferenceable(8) ptr @_ZNK32pxrInternal_v0_24__pxrReserved__7GfVec3dixEm(ptr noundef nonnull align 8 dereferenceable(24) %66, i64 noundef %67)
  %69 = load double, ptr %68, align 8
  %70 = fsub double %65, %69
  %71 = fmul double %60, %70
  store double %71, ptr %14, align 8
  %72 = load double, ptr %13, align 8
  %73 = load ptr, ptr %7, align 8
  %74 = call noundef nonnull align 8 dereferenceable(24) ptr @_ZNK32pxrInternal_v0_24__pxrReserved__9GfRange3d6GetMaxEv(ptr noundef nonnull align 8 dereferenceable(48) %73)
  %75 = load i64, ptr %12, align 8
  %76 = call noundef nonnull align 8 dereferenceable(8) ptr @_ZNK32pxrInternal_v0_24__pxrReserved__7GfVec3dixEm(ptr noundef nonnull align 8 dereferenceable(24) %74, i64 noundef %75)
  %77 = load double, ptr %76, align 8
  %78 = call noundef nonnull align 8 dereferenceable(24) ptr @_ZNK32pxrInternal_v0_24__pxrReserved__5GfRay13GetStartPointEv(ptr noundef nonnull align 8 dereferenceable(48) %17)
  %79 = load i64, ptr %12, align 8
  %80 = call noundef nonnull align 8 dereferenceable(8) ptr @_ZNK32pxrInternal_v0_24__pxrReserved__7GfVec3dixEm(ptr noundef nonnull align 8 dereferenceable(24) %78, i64 noundef %79)
  %81 = load double, ptr %80, align 8
  %82 = fsub double %77, %81
  %83 = fmul double %72, %82
  store double %83, ptr %15, align 8
  %84 = load double, ptr %14, align 8
  %85 = load double, ptr %15, align 8
  %86 = fcmp ogt double %84, %85
  br i1 %86, label %87, label %91

87:                                               ; preds = %57
  %88 = load double, ptr %14, align 8
  store double %88, ptr %16, align 8
  %89 = load double, ptr %15, align 8
  store double %89, ptr %14, align 8
  %90 = load double, ptr %16, align 8
  store double %90, ptr %15, align 8
  br label %91

91:                                               ; preds = %87, %57
  %92 = load double, ptr %14, align 8
  %93 = load double, ptr %10, align 8
  %94 = fcmp ogt double %92, %93
  br i1 %94, label %95, label %97

95:                                               ; preds = %91
  %96 = load double, ptr %14, align 8
  store double %96, ptr %10, align 8
  br label %97

97:                                               ; preds = %95, %91
  %98 = load double, ptr %15, align 8
  %99 = load double, ptr %11, align 8
  %100 = fcmp olt double %98, %99
  br i1 %100, label %101, label %103

101:                                              ; preds = %97
  %102 = load double, ptr %15, align 8
  store double %102, ptr %11, align 8
  br label %103

103:                                              ; preds = %101, %97
  br label %104

104:                                              ; preds = %103, %56
  %105 = load i64, ptr %12, align 8
  %106 = add i64 %105, 1
  store i64 %106, ptr %12, align 8
  br label %22, !llvm.loop !4

107:                                              ; preds = %22
  %108 = load double, ptr %10, align 8
  %109 = load double, ptr %11, align 8
  %110 = fcmp ogt double %108, %109
  br i1 %110, label %114, label %111

111:                                              ; preds = %107
  %112 = load double, ptr %11, align 8
  %113 = fcmp olt double %112, 0.000000e+00
  br i1 %113, label %114, label %115

114:                                              ; preds = %111, %107
  store i1 false, ptr %5, align 1
  br label %128

115:                                              ; preds = %111
  %116 = load ptr, ptr %8, align 8
  %117 = icmp ne ptr %116, null
  br i1 %117, label %118, label %121

118:                                              ; preds = %115
  %119 = load double, ptr %10, align 8
  %120 = load ptr, ptr %8, align 8
  store double %119, ptr %120, align 8
  br label %121

121:                                              ; preds = %118, %115
  %122 = load ptr, ptr %9, align 8
  %123 = icmp ne ptr %122, null
  br i1 %123, label %124, label %127

124:                                              ; preds = %121
  %125 = load double, ptr %11, align 8
  %126 = load ptr, ptr %9, align 8
  store double %125, ptr %126, align 8
  br label %127

127:                                              ; preds = %124, %121
  store i1 true, ptr %5, align 1
  br label %128

128:                                              ; preds = %127, %114, %55, %20
  %129 = load i1, ptr %5, align 1
  ret i1 %129
}