; Function Attrs: mustprogress nofree norecurse nosync nounwind memory(argmem: readwrite) uwtable
define noundef zeroext i1 @_ZNK32pxrInternal_v0_24__pxrReserved__5GfRay9IntersectERKNS_9GfRange3dEPdS4_(ptr nocapture noundef nonnull readonly align 8 dereferenceable(48) %0, ptr nocapture noundef nonnull readonly align 8 dereferenceable(48) %1, ptr noundef writeonly %2, ptr noundef writeonly %3) local_unnamed_addr #5 align 2 {
  %5 = load double, ptr %1, align 8
  %6 = getelementptr inbounds nuw i8, ptr %1, i64 24
  %7 = load double, ptr %6, align 8
  %8 = fcmp ogt double %5, %7
  br i1 %8, label %_ZNK32pxrInternal_v0_24__pxrReserved__9GfRange3d7IsEmptyEv.exit.thread, label %9

9:                                                ; preds = %4
  %10 = getelementptr inbounds i8, ptr %1, i64 8
  %11 = load double, ptr %10, align 8
  %12 = getelementptr inbounds i8, ptr %1, i64 32
  %13 = load double, ptr %12, align 8
  %14 = fcmp ogt double %11, %13
  br i1 %14, label %_ZNK32pxrInternal_v0_24__pxrReserved__9GfRange3d7IsEmptyEv.exit.thread, label %_ZNK32pxrInternal_v0_24__pxrReserved__9GfRange3d7IsEmptyEv.exit

_ZNK32pxrInternal_v0_24__pxrReserved__9GfRange3d7IsEmptyEv.exit: ; preds = %9
  %15 = getelementptr inbounds i8, ptr %1, i64 16
  %16 = load double, ptr %15, align 8
  %17 = getelementptr inbounds i8, ptr %1, i64 40
  %18 = load double, ptr %17, align 8
  %19 = fcmp ogt double %16, %18
  br i1 %19, label %_ZNK32pxrInternal_v0_24__pxrReserved__9GfRange3d7IsEmptyEv.exit.thread, label %.preheader

.preheader:                                       ; preds = %_ZNK32pxrInternal_v0_24__pxrReserved__9GfRange3d7IsEmptyEv.exit
  %20 = getelementptr inbounds nuw i8, ptr %0, i64 24
  br label %21

21:                                               ; preds = %.preheader, %52
  %.04459 = phi i64 [ 0, %.preheader ], [ %53, %52 ]
  %.04558 = phi double [ 0x7FEFFFFFFFFFFFFF, %.preheader ], [ %.1, %52 ]
  %.04657 = phi double [ 0xFFEFFFFFFFFFFFFF, %.preheader ], [ %.147, %52 ]
  %22 = getelementptr inbounds [3 x double], ptr %20, i64 0, i64 %.04459
  %23 = load double, ptr %22, align 8
  %24 = tail call noundef double @llvm.fabs.f64(double %23)
  %25 = fcmp olt double %24, 1.000000e-10
  br i1 %25, label %26, label %36

26:                                               ; preds = %21
  %27 = getelementptr inbounds [3 x double], ptr %0, i64 0, i64 %.04459
  %28 = load double, ptr %27, align 8
  %29 = getelementptr inbounds [3 x double], ptr %1, i64 0, i64 %.04459
  %30 = load double, ptr %29, align 8
  %31 = fcmp olt double %28, %30
  br i1 %31, label %_ZNK32pxrInternal_v0_24__pxrReserved__9GfRange3d7IsEmptyEv.exit.thread, label %32

32:                                               ; preds = %26
  %33 = getelementptr inbounds [3 x double], ptr %6, i64 0, i64 %.04459
  %34 = load double, ptr %33, align 8
  %35 = fcmp ogt double %28, %34
  br i1 %35, label %_ZNK32pxrInternal_v0_24__pxrReserved__9GfRange3d7IsEmptyEv.exit.thread, label %52

36:                                               ; preds = %21
  %37 = fdiv double 1.000000e+00, %23
  %38 = getelementptr inbounds [3 x double], ptr %1, i64 0, i64 %.04459
  %39 = load double, ptr %38, align 8
  %40 = getelementptr inbounds [3 x double], ptr %0, i64 0, i64 %.04459
  %41 = load double, ptr %40, align 8
  %42 = fsub double %39, %41
  %43 = fmul double %37, %42
  %44 = getelementptr inbounds [3 x double], ptr %6, i64 0, i64 %.04459
  %45 = load double, ptr %44, align 8
  %46 = fsub double %45, %41
  %47 = fmul double %37, %46
  %48 = fcmp ogt double %43, %47
  %.043 = select i1 %48, double %47, double %43
  %.042 = select i1 %48, double %43, double %47
  %49 = fcmp ogt double %.043, %.04657
  %.2 = select i1 %49, double %.043, double %.04657
  %50 = fcmp olt double %.042, %.04558
  br i1 %50, label %51, label %52

51:                                               ; preds = %36
  br label %52

52:                                               ; preds = %36, %51, %32
  %.147 = phi double [ %.04657, %32 ], [ %.2, %51 ], [ %.2, %36 ]
  %.1 = phi double [ %.04558, %32 ], [ %.042, %51 ], [ %.04558, %36 ]
  %53 = add nuw nsw i64 %.04459, 1
  %exitcond.not = icmp eq i64 %53, 3
  br i1 %exitcond.not, label %54, label %21, !llvm.loop !45

54:                                               ; preds = %52
  %55 = fcmp ogt double %.147, %.1
  %56 = fcmp olt double %.1, 0.000000e+00
  %or.cond = or i1 %55, %56
  br i1 %or.cond, label %_ZNK32pxrInternal_v0_24__pxrReserved__9GfRange3d7IsEmptyEv.exit.thread, label %57

57:                                               ; preds = %54
  %.not = icmp eq ptr %2, null
  br i1 %.not, label %59, label %58

58:                                               ; preds = %57
  store double %.147, ptr %2, align 8
  br label %59

59:                                               ; preds = %58, %57
  %.not54 = icmp eq ptr %3, null
  br i1 %.not54, label %_ZNK32pxrInternal_v0_24__pxrReserved__9GfRange3d7IsEmptyEv.exit.thread, label %60

60:                                               ; preds = %59
  store double %.1, ptr %3, align 8
  br label %_ZNK32pxrInternal_v0_24__pxrReserved__9GfRange3d7IsEmptyEv.exit.thread

_ZNK32pxrInternal_v0_24__pxrReserved__9GfRange3d7IsEmptyEv.exit.thread: ; preds = %26, %32, %4, %9, %59, %60, %54, %_ZNK32pxrInternal_v0_24__pxrReserved__9GfRange3d7IsEmptyEv.exit
  %.0 = phi i1 [ false, %_ZNK32pxrInternal_v0_24__pxrReserved__9GfRange3d7IsEmptyEv.exit ], [ false, %54 ], [ true, %60 ], [ true, %59 ], [ false, %9 ], [ false, %4 ], [ false, %32 ], [ false, %26 ]
  ret i1 %.0
}